; Function Attrs: mustprogress uwtable
define noundef i32 @_ZNK18FilterCameraPlugin16getPreConditionsEPK7QAction(ptr noundef nonnull align 8 dereferenceable(80) %0, ptr noundef %1) unnamed_addr #9 align 2 {
  %3 = getelementptr inbounds i8, ptr %0, i64 16
  %4 = load ptr, ptr %3, align 8
  %5 = getelementptr inbounds i8, ptr %4, i64 144
  %6 = load ptr, ptr %5, align 8
  %7 = tail call noundef i32 %6(ptr noundef nonnull align 8 dereferenceable(64) %3, ptr noundef %1)
  %cond = icmp eq i32 %7, 7
  %spec.select = select i1 %cond, i32 2, i32 0
  ret i32 %spec.select
}